target datalayout = "e-m:e-p270:32:32-p271:32:32-p272:64:64-i64:64-i128:128-f80:128-n8:16:32:64-S128"
target triple = "x86_64-pc-linux-gnu"

%struct.AVCodecContext = type { ptr, i32, i32, ptr, i32, i32, ptr, ptr, ptr, i64, i32, i32, ptr, i32, %struct.AVRational, %struct.AVRational, %struct.AVRational, i32, i32, i32, i32, i32, %struct.AVRational, i32, i32, i32, i32, i32, i32, i32, i32, i32, i32, i32, ptr, ptr, i32, float, float, float, float, float, float, float, float, float, i32, i32, i32, i32, i32, i32, i32, i32, i32, i32, i32, i32, ptr, ptr, ptr, i32, i32, i32, i32, i32, i32, i32, i32, i32, i32, %struct.AVChannelLayout, i32, i32, i32, i32, i32, i32, i32, i32, ptr, i32, i32, i32, float, float, i32, i32, i32, i32, i32, ptr, i64, i64, float, float, i32, i32, ptr, ptr, i32, i32, i32, i32, i32, ptr, ptr, ptr, ptr, i32, i32, [8 x i64], i32, i32, i32, i32, i32, i32, i32, ptr, ptr, i32, i32, i32, i32, i32, i32, i32, i32, i32, i32, ptr, ptr, i32, i32, ptr, ptr, ptr, ptr, i32, i32, i64, i32, i32, i64, ptr, i64, ptr, i32, ptr, i32 }
%struct.AVRational = type { i32, i32 }
%struct.AVChannelLayout = type { i32, i32, %union.anon.0, ptr }
%union.anon.0 = type { i64 }
%struct.SHQContext = type { %struct.BlockDSPContext, %struct.IDCTDSPContext, [64 x i8], [64 x i32], i32, i32, ptr, i32 }
%struct.BlockDSPContext = type { ptr, ptr, [2 x ptr] }
%struct.IDCTDSPContext = type { ptr, ptr, ptr, ptr, ptr, ptr, [64 x i8], i32, i32 }
%struct.AVPacket = type { ptr, i64, i64, ptr, i32, i32, i32, ptr, i32, i64, i64, ptr, ptr, %struct.AVRational }

; Function Attrs: nounwind uwtable
define internal i32 @decode_slice_interlaced(ptr noundef %0, ptr noundef %1, i32 noundef %2, i32 noundef %3) #1 {
  %5 = alloca i32, align 4
  %6 = alloca ptr, align 8
  %7 = alloca ptr, align 8
  %8 = alloca i32, align 4
  %9 = alloca i32, align 4
  %10 = alloca ptr, align 8
  %11 = alloca i32, align 4
  %12 = alloca i32, align 4
  %13 = alloca i32, align 4
  store ptr %0, ptr %6, align 8, !tbaa !4
  store ptr %1, ptr %7, align 8, !tbaa !68
  store i32 %2, ptr %8, align 4, !tbaa !31
  store i32 %3, ptr %9, align 4, !tbaa !31
  call void @llvm.lifetime.start.p0(i64 8, ptr %10) #10
  %14 = load ptr, ptr %6, align 8, !tbaa !4
  %15 = getelementptr inbounds nuw %struct.AVCodecContext, ptr %14, i32 0, i32 6
  %16 = load ptr, ptr %15, align 8, !tbaa !9
  store ptr %16, ptr %10, align 8, !tbaa !29
  call void @llvm.lifetime.start.p0(i64 4, ptr %11) #10
  %17 = load i32, ptr %8, align 4, !tbaa !31
  %18 = sdiv i32 %17, 4
  store i32 %18, ptr %11, align 4, !tbaa !31
  call void @llvm.lifetime.start.p0(i64 4, ptr %12) #10
  %19 = load i32, ptr %8, align 4, !tbaa !31
  %20 = srem i32 %19, 4
  store i32 %20, ptr %12, align 4, !tbaa !31
  %21 = load i32, ptr %11, align 4, !tbaa !31
  %22 = icmp eq i32 %21, 0
  br i1 %22, label %23, label %43

23:                                               ; preds = %4
  %24 = load ptr, ptr %6, align 8, !tbaa !4
  %25 = getelementptr inbounds nuw %struct.AVCodecContext, ptr %24, i32 0, i32 6
  %26 = load ptr, ptr %25, align 8, !tbaa !9
  %27 = load ptr, ptr %10, align 8, !tbaa !29
  %28 = getelementptr inbounds nuw %struct.SHQContext, ptr %27, i32 0, i32 6
  %29 = load ptr, ptr %28, align 8, !tbaa !57
  %30 = getelementptr inbounds nuw %struct.AVPacket, ptr %29, i32 0, i32 3
  %31 = load ptr, ptr %30, align 8, !tbaa !46
  %32 = load ptr, ptr %10, align 8, !tbaa !29
  %33 = getelementptr inbounds nuw %struct.SHQContext, ptr %32, i32 0, i32 6
  %34 = load ptr, ptr %33, align 8, !tbaa !57
  %35 = getelementptr inbounds nuw %struct.AVPacket, ptr %34, i32 0, i32 4
  %36 = load i32, ptr %35, align 8, !tbaa !49
  %37 = load ptr, ptr %7, align 8, !tbaa !68
  %38 = load ptr, ptr %10, align 8, !tbaa !29
  %39 = getelementptr inbounds nuw %struct.SHQContext, ptr %38, i32 0, i32 7
  %40 = load i32, ptr %39, align 8, !tbaa !54
  %41 = load i32, ptr %12, align 4, !tbaa !31
  %42 = call i32 @decode_speedhq_field(ptr noundef %26, ptr noundef %31, i32 noundef %36, ptr noundef %37, i32 noundef 0, i32 noundef 4, i32 noundef %40, i32 noundef 2, i32 noundef %41)
  store i32 %42, ptr %5, align 4
  store i32 1, ptr %13, align 4
  br label %68

43:                                               ; preds = %4
  %44 = load ptr, ptr %6, align 8, !tbaa !4
  %45 = getelementptr inbounds nuw %struct.AVCodecContext, ptr %44, i32 0, i32 6
  %46 = load ptr, ptr %45, align 8, !tbaa !9
  %47 = load ptr, ptr %10, align 8, !tbaa !29
  %48 = getelementptr inbounds nuw %struct.SHQContext, ptr %47, i32 0, i32 6
  %49 = load ptr, ptr %48, align 8, !tbaa !57
  %50 = getelementptr inbounds nuw %struct.AVPacket, ptr %49, i32 0, i32 3
  %51 = load ptr, ptr %50, align 8, !tbaa !46
  %52 = load ptr, ptr %10, align 8, !tbaa !29
  %53 = getelementptr inbounds nuw %struct.SHQContext, ptr %52, i32 0, i32 6
  %54 = load ptr, ptr %53, align 8, !tbaa !57
  %55 = getelementptr inbounds nuw %struct.AVPacket, ptr %54, i32 0, i32 4
  %56 = load i32, ptr %55, align 8, !tbaa !49
  %57 = load ptr, ptr %7, align 8, !tbaa !68
  %58 = load ptr, ptr %10, align 8, !tbaa !29
  %59 = getelementptr inbounds nuw %struct.SHQContext, ptr %58, i32 0, i32 7
  %60 = load i32, ptr %59, align 8, !tbaa !54
  %61 = load ptr, ptr %10, align 8, !tbaa !29
  %62 = getelementptr inbounds nuw %struct.SHQContext, ptr %61, i32 0, i32 6
  %63 = load ptr, ptr %62, align 8, !tbaa !57
  %64 = getelementptr inbounds nuw %struct.AVPacket, ptr %63, i32 0, i32 4
  %65 = load i32, ptr %64, align 8, !tbaa !49
  %66 = load i32, ptr %12, align 4, !tbaa !31
  %67 = call i32 @decode_speedhq_field(ptr noundef %46, ptr noundef %51, i32 noundef %56, ptr noundef %57, i32 noundef 1, i32 noundef %60, i32 noundef %65, i32 noundef 2, i32 noundef %66)
  store i32 %67, ptr %5, align 4
  store i32 1, ptr %13, align 4
  br label %68

68:                                               ; preds = %43, %23
  call void @llvm.lifetime.end.p0(i64 4, ptr %12) #10
  call void @llvm.lifetime.end.p0(i64 4, ptr %11) #10
  call void @llvm.lifetime.end.p0(i64 8, ptr %10) #10
  %69 = load i32, ptr %5, align 4
  ret i32 %69
}