; Function Attrs: nounwind uwtable
define internal range(i32 -1094995529, 1) i32 @decode_slice_interlaced(ptr noundef readonly captures(none) %0, ptr noundef readonly captures(none) %1, i32 noundef %2, i32 %3) #1 {
  %5 = getelementptr inbounds nuw i8, ptr %0, i64 32
  %6 = load ptr, ptr %5, align 8, !tbaa !4
  %7 = srem i32 %2, 4
  %.off = add i32 %2, 3
  %8 = icmp ult i32 %.off, 7
  %9 = getelementptr inbounds nuw i8, ptr %6, i64 480
  %10 = load ptr, ptr %9, align 8, !tbaa !50
  %11 = getelementptr inbounds nuw i8, ptr %10, i64 24
  %12 = load ptr, ptr %11, align 8, !tbaa !37
  %13 = getelementptr inbounds nuw i8, ptr %10, i64 32
  %14 = load i32, ptr %13, align 8, !tbaa !39
  %15 = getelementptr inbounds nuw i8, ptr %6, i64 488
  %16 = load i32, ptr %15, align 8, !tbaa !47
  br i1 %8, label %17, label %19

17:                                               ; preds = %4
  %18 = tail call fastcc i32 @decode_speedhq_field(ptr noundef %6, ptr noundef %12, i32 noundef %14, ptr noundef %1, i32 noundef 0, i32 noundef 4, i32 noundef %16, i32 noundef 2, i32 noundef %7)
  br label %21

19:                                               ; preds = %4
  %20 = tail call fastcc i32 @decode_speedhq_field(ptr noundef %6, ptr noundef %12, i32 noundef %14, ptr noundef %1, i32 noundef 1, i32 noundef %16, i32 noundef %14, i32 noundef 2, i32 noundef %7)
  br label %21

21:                                               ; preds = %19, %17
  %.0 = phi i32 [ %18, %17 ], [ %20, %19 ]
  ret i32 %.0
}